target datalayout = "e-m:e-p270:32:32-p271:32:32-p272:64:64-i64:64-i128:128-f80:128-n8:16:32:64-S128"
target triple = "x86_64-unknown-linux-gnu"

%"class.llvh::SMLoc" = type { ptr }
%"class.hermes::SourceErrorManager::SourceCoords" = type { i32, i32, i32 }
%"struct.hermes::hbc::FileAndSourceMapId" = type { i32, i32 }
%"struct.hermes::hbc::DebugSourceLocation" = type { i32, i32, i32, i32, i32, i32, i32, i32 }

; Function Attrs: mustprogress nounwind uwtable
define linkonce_odr hidden void @_ZN6hermes18SourceErrorManager12SourceCoordsC2Ev(ptr noundef nonnull align 4 dereferenceable(12) %this) unnamed_addr #0 comdat align 2 {
entry:
  %this.addr = alloca ptr, align 8
  store ptr %this, ptr %this.addr, align 8
  %this1 = load ptr, ptr %this.addr, align 8
  %bufId = getelementptr inbounds %"class.hermes::SourceErrorManager::SourceCoords", ptr %this1, i32 0, i32 0
  store i32 0, ptr %bufId, align 4
  %line = getelementptr inbounds %"class.hermes::SourceErrorManager::SourceCoords", ptr %this1, i32 0, i32 1
  store i32 0, ptr %line, align 4
  %col = getelementptr inbounds %"class.hermes::SourceErrorManager::SourceCoords", ptr %this1, i32 0, i32 2
  store i32 0, ptr %col, align 4
  ret void
}

; Function Attrs: mustprogress nounwind uwtable
define hidden noundef zeroext i1 @_ZN6hermes3hbc7HBCISel22getDebugSourceLocationERNS_18SourceErrorManagerEN4llvh5SMLocEPNS0_19DebugSourceLocationE(ptr noundef nonnull align 8 dereferenceable(392) %this, ptr noundef nonnull align 8 dereferenceable(464) %manager, ptr %loc.coerce, ptr noundef %out) #0 align 2 {
entry:
  %retval = alloca i1, align 1
  %loc = alloca %"class.llvh::SMLoc", align 8
  %this.addr = alloca ptr, align 8
  %manager.addr = alloca ptr, align 8
  %out.addr = alloca ptr, align 8
  %coords = alloca %"class.hermes::SourceErrorManager::SourceCoords", align 4
  %agg.tmp = alloca %"class.llvh::SMLoc", align 8
  %ids = alloca %"struct.hermes::hbc::FileAndSourceMapId", align 4
  %coerce.dive = getelementptr inbounds %"class.llvh::SMLoc", ptr %loc, i32 0, i32 0
  store ptr %loc.coerce, ptr %coerce.dive, align 8
  store ptr %this, ptr %this.addr, align 8
  store ptr %manager, ptr %manager.addr, align 8
  store ptr %out, ptr %out.addr, align 8
  %this1 = load ptr, ptr %this.addr, align 8
  call void @llvm.memset.p0.i64(ptr align 4 %coords, i8 0, i64 12, i1 false)
  call void @_ZN6hermes18SourceErrorManager12SourceCoordsC2Ev(ptr noundef nonnull align 4 dereferenceable(12) %coords) #11
  %0 = load ptr, ptr %manager.addr, align 8
  call void @llvm.memcpy.p0.p0.i64(ptr align 8 %agg.tmp, ptr align 8 %loc, i64 8, i1 false)
  %coerce.dive2 = getelementptr inbounds %"class.llvh::SMLoc", ptr %agg.tmp, i32 0, i32 0
  %1 = load ptr, ptr %coerce.dive2, align 8
  %call = call noundef zeroext i1 @_ZN6hermes18SourceErrorManager20findBufferLineAndLocEN4llvh5SMLocERNS0_12SourceCoordsEb(ptr noundef nonnull align 8 dereferenceable(464) %0, ptr %1, ptr noundef nonnull align 4 dereferenceable(12) %coords, i1 noundef zeroext true)
  br i1 %call, label %if.end, label %if.then

if.then:                                          ; preds = %entry
  store i1 false, ptr %retval, align 1
  br label %return

if.end:                                           ; preds = %entry
  %2 = load ptr, ptr %manager.addr, align 8
  %bufId = getelementptr inbounds %"class.hermes::SourceErrorManager::SourceCoords", ptr %coords, i32 0, i32 0
  %3 = load i32, ptr %bufId, align 4
  %call3 = call i64 @_ZN6hermes3hbc7HBCISel24obtainFileAndSourceMapIdERNS_18SourceErrorManagerEj(ptr noundef nonnull align 8 dereferenceable(392) %this1, ptr noundef nonnull align 8 dereferenceable(464) %2, i32 noundef %3)
  store i64 %call3, ptr %ids, align 4
  %line = getelementptr inbounds %"class.hermes::SourceErrorManager::SourceCoords", ptr %coords, i32 0, i32 1
  %4 = load i32, ptr %line, align 4
  %5 = load ptr, ptr %out.addr, align 8
  %line4 = getelementptr inbounds %"struct.hermes::hbc::DebugSourceLocation", ptr %5, i32 0, i32 3
  store i32 %4, ptr %line4, align 4
  %col = getelementptr inbounds %"class.hermes::SourceErrorManager::SourceCoords", ptr %coords, i32 0, i32 2
  %6 = load i32, ptr %col, align 4
  %7 = load ptr, ptr %out.addr, align 8
  %column = getelementptr inbounds %"struct.hermes::hbc::DebugSourceLocation", ptr %7, i32 0, i32 4
  store i32 %6, ptr %column, align 4
  %filenameId = getelementptr inbounds %"struct.hermes::hbc::FileAndSourceMapId", ptr %ids, i32 0, i32 0
  %8 = load i32, ptr %filenameId, align 4
  %9 = load ptr, ptr %out.addr, align 8
  %filenameId5 = getelementptr inbounds %"struct.hermes::hbc::DebugSourceLocation", ptr %9, i32 0, i32 1
  store i32 %8, ptr %filenameId5, align 4
  %sourceMappingUrlId = getelementptr inbounds %"struct.hermes::hbc::FileAndSourceMapId", ptr %ids, i32 0, i32 1
  %10 = load i32, ptr %sourceMappingUrlId, align 4
  %11 = load ptr, ptr %out.addr, align 8
  %sourceMappingUrlId6 = getelementptr inbounds %"struct.hermes::hbc::DebugSourceLocation", ptr %11, i32 0, i32 2
  store i32 %10, ptr %sourceMappingUrlId6, align 4
  store i1 true, ptr %retval, align 1
  br label %return

return:                                           ; preds = %if.end, %if.then
  %12 = load i1, ptr %retval, align 1
  ret i1 %12
}