; Function Attrs: mustprogress nounwind uwtable
define hidden noundef zeroext i1 @_ZN6hermes3hbc7HBCISel22getDebugSourceLocationERNS_18SourceErrorManagerEN4llvh5SMLocEPNS0_19DebugSourceLocationE(ptr noundef nonnull align 8 dereferenceable(392) %this, ptr noundef nonnull align 8 dereferenceable(464) %manager, ptr %loc.coerce, ptr nocapture noundef writeonly %out) local_unnamed_addr #0 align 2 {
entry:
  %coords = alloca %"class.hermes::SourceErrorManager::SourceCoords", align 4
  call void @llvm.memset.p0.i64(ptr noundef nonnull align 4 dereferenceable(12) %coords, i8 0, i64 12, i1 false)
  %call = call noundef zeroext i1 @_ZN6hermes18SourceErrorManager20findBufferLineAndLocEN4llvh5SMLocERNS0_12SourceCoordsEb(ptr noundef nonnull align 8 dereferenceable(464) %manager, ptr %loc.coerce, ptr noundef nonnull align 4 dereferenceable(12) %coords, i1 noundef zeroext true) #19
  br i1 %call, label %if.end, label %return

if.end:                                           ; preds = %entry
  %line.i = getelementptr inbounds i8, ptr %coords, i64 4
  %0 = load i32, ptr %coords, align 4
  %call3 = call i64 @_ZN6hermes3hbc7HBCISel24obtainFileAndSourceMapIdERNS_18SourceErrorManagerEj(ptr noundef nonnull align 8 dereferenceable(392) %this, ptr noundef nonnull align 8 dereferenceable(464) %manager, i32 noundef %0)
  %ids.sroa.0.0.extract.trunc = trunc i64 %call3 to i32
  %ids.sroa.2.0.extract.shift = lshr i64 %call3, 32
  %ids.sroa.2.0.extract.trunc = trunc i64 %ids.sroa.2.0.extract.shift to i32
  %line4 = getelementptr inbounds i8, ptr %out, i64 12
  %1 = load <2 x i32>, ptr %line.i, align 4
  store <2 x i32> %1, ptr %line4, align 4
  %filenameId5 = getelementptr inbounds i8, ptr %out, i64 4
  store i32 %ids.sroa.0.0.extract.trunc, ptr %filenameId5, align 4
  %sourceMappingUrlId6 = getelementptr inbounds i8, ptr %out, i64 8
  store i32 %ids.sroa.2.0.extract.trunc, ptr %sourceMappingUrlId6, align 4
  br label %return

return:                                           ; preds = %entry, %if.end
  ret i1 %call
}